; Function Attrs: mustprogress uwtable
define hidden void @_ZN19OpenColorIO_v2_4dev11Lut1DOpData10ComposeVecERSt10shared_ptrIS0_ERNS_10OpRcPtrVecE(ptr nocapture noundef nonnull readonly align 8 dereferenceable(16) %lut, ptr noundef nonnull align 8 dereferenceable(144) %ops) local_unnamed_addr #3 align 2 personality ptr @__gxx_personality_v0 {
entry:
  %0 = load ptr, ptr %ops, align 8
  %_M_finish.i.i.i = getelementptr inbounds i8, ptr %ops, i64 8
  %1 = load ptr, ptr %_M_finish.i.i.i, align 8
  %cmp.i.i.i = icmp eq ptr %0, %1
  br i1 %cmp.i.i.i, label %if.then, label %if.end

if.then:                                          ; preds = %entry
  %exception = tail call ptr @__cxa_allocate_exception(i64 16) #25
  invoke void @_ZN19OpenColorIO_v2_4dev9ExceptionC1EPKc(ptr noundef nonnull align 8 dereferenceable(16) %exception, ptr noundef nonnull @.str.15)
          to label %invoke.cont unwind label %lpad

invoke.cont:                                      ; preds = %if.then
  tail call void @__cxa_throw(ptr nonnull %exception, ptr nonnull @_ZTIN19OpenColorIO_v2_4dev9ExceptionE, ptr nonnull @_ZN19OpenColorIO_v2_4dev9ExceptionD1Ev) #26
  unreachable

lpad:                                             ; preds = %if.then
  %2 = landingpad { ptr, i32 }
          cleanup
  tail call void @__cxa_free_exception(ptr %exception) #25
  resume { ptr, i32 } %2

if.end:                                           ; preds = %entry
  %3 = load ptr, ptr %lut, align 8
  %m_array.i = getelementptr inbounds i8, ptr %3, i64 176
  %vtable = load ptr, ptr %m_array.i, align 8
  %vfn = getelementptr inbounds i8, ptr %vtable, i64 32
  %4 = load ptr, ptr %vfn, align 8
  %call3 = tail call noundef i64 %4(ptr noundef nonnull align 8 dereferenceable(48) %m_array.i)
  %5 = load ptr, ptr %lut, align 8
  %m_array.i6 = getelementptr inbounds i8, ptr %5, i64 176
  %vtable6 = load ptr, ptr %m_array.i6, align 8
  %vfn7 = getelementptr inbounds i8, ptr %vtable6, i64 56
  %6 = load ptr, ptr %vfn7, align 8
  tail call void %6(ptr noundef nonnull align 8 dereferenceable(48) %m_array.i6, i64 noundef %call3, i64 noundef 3)
  %7 = load ptr, ptr %lut, align 8
  %m_data.i = getelementptr inbounds i8, ptr %7, i64 200
  %8 = load ptr, ptr %m_data.i, align 8
  tail call void @_ZN19OpenColorIO_v2_4dev13EvalTransformEPKfPflRNS_10OpRcPtrVecE(ptr noundef nonnull %8, ptr noundef nonnull %8, i64 noundef %call3, ptr noundef nonnull align 8 dereferenceable(144) %ops)
  ret void
}